; Function Attrs: mustprogress uwtable
define hidden { i64, i64 } @_ZN10duckdb_re28Compiler9ByteRangeEiib(ptr noundef nonnull align 8 captures(none) dereferenceable(228) %0, i32 noundef %1, i32 noundef %2, i1 noundef zeroext %3) local_unnamed_addr #0 align 2 {
  %5 = alloca %"struct.duckdb_re2::Frag", align 8
  %6 = alloca %"struct.duckdb_re2::Frag", align 8
  %7 = tail call noundef i32 @_ZN10duckdb_re28Compiler9AllocInstEi(ptr noundef nonnull align 8 dereferenceable(228) %0, i32 noundef 1)
  %8 = icmp slt i32 %7, 0
  br i1 %8, label %9, label %10

9:                                                ; preds = %4
  call void @llvm.lifetime.start.p0(i64 16, ptr nonnull %5)
  store i32 0, ptr %5, align 8, !tbaa !71
  %.4..4..4..4..4..sroa_idx = getelementptr inbounds nuw i8, ptr %5, i64 4
  store i64 0, ptr %.4..4..4..4..4..sroa_idx, align 4
  %.12..12..12..12..12..sroa_idx = getelementptr inbounds nuw i8, ptr %5, i64 12
  store i8 0, ptr %.12..12..12..12..12..sroa_idx, align 4, !tbaa !72
  %.0..0..0..0..0..fca.0.load.i = load i64, ptr %5, align 8
  %.8..8..8..8..8..fca.1.gep.sroa_idx = getelementptr inbounds nuw i8, ptr %5, i64 8
  %.8..8..8..8..8..fca.1.load.i = load i64, ptr %.8..8..8..8..8..fca.1.gep.sroa_idx, align 8
  call void @llvm.lifetime.end.p0(i64 16, ptr nonnull %5)
  %.sroa.2.0.extract.trunc = trunc i64 %.8..8..8..8..8..fca.1.load.i to i40
  %.8..8..8..sroa_idx = getelementptr inbounds nuw i8, ptr %6, i64 8
  store i40 %.sroa.2.0.extract.trunc, ptr %.8..8..8..sroa_idx, align 8
  br label %17

10:                                               ; preds = %4
  %11 = zext nneg i32 %7 to i64
  %12 = getelementptr inbounds nuw i8, ptr %0, i64 128
  %13 = load ptr, ptr %12, align 8, !tbaa !55
  %14 = getelementptr inbounds nuw %"class.duckdb_re2::Prog::Inst", ptr %13, i64 %11
  %15 = zext i1 %3 to i32
  tail call void @_ZN10duckdb_re24Prog4Inst13InitByteRangeEiiij(ptr noundef nonnull align 4 dereferenceable(8) %14, i32 noundef %1, i32 noundef %2, i32 noundef %15, i32 noundef 0)
  %16 = shl nuw i32 %7, 1
  %.sroa.2.0.insert.ext.i = zext i32 %16 to i64
  %.sroa.0.0.insert.insert.i = mul nuw i64 %.sroa.2.0.insert.ext.i, 4294967297
  store i32 %7, ptr %6, align 8, !tbaa !71
  %.4..4..4..sroa_idx = getelementptr inbounds nuw i8, ptr %6, i64 4
  store i64 %.sroa.0.0.insert.insert.i, ptr %.4..4..4..sroa_idx, align 4
  %.12..12..12..sroa_idx = getelementptr inbounds nuw i8, ptr %6, i64 12
  store i8 0, ptr %.12..12..12..sroa_idx, align 4, !tbaa !72
  %.0..0..0..fca.0.load.pre = load i64, ptr %6, align 8
  br label %17

17:                                               ; preds = %10, %9
  %.0..0..fca.0.load = phi i64 [ %.0..0..0..fca.0.load.pre, %10 ], [ %.0..0..0..0..0..fca.0.load.i, %9 ]
  %.fca.0.insert = insertvalue { i64, i64 } poison, i64 %.0..0..fca.0.load, 0
  %.8..8..8..fca.1.gep.sroa_idx = getelementptr inbounds nuw i8, ptr %6, i64 8
  %.8..8..8..fca.1.load = load i64, ptr %.8..8..8..fca.1.gep.sroa_idx, align 8
  %.fca.1.insert = insertvalue { i64, i64 } %.fca.0.insert, i64 %.8..8..8..fca.1.load, 1
  ret { i64, i64 } %.fca.1.insert
}